target datalayout = "e-m:e-p270:32:32-p271:32:32-p272:64:64-i64:64-i128:128-f80:128-n8:16:32:64-S128"
target triple = "x86_64-pc-linux-gnu"

%"struct.faiss::CodePacker" = type { ptr, i64, i64, i64 }
%"struct.faiss::CodePackerPQ4" = type { %"struct.faiss::CodePacker", i64 }

@_ZTVN5faiss10CodePackerE = external unnamed_addr constant { [8 x ptr] }, align 8

; Function Attrs: inlinehint mustprogress nounwind uwtable
define linkonce_odr void @_ZN5faiss10CodePackerC2Ev(ptr noundef nonnull align 8 dereferenceable(32) %0) unnamed_addr #3 comdat align 2 {
  %2 = alloca ptr, align 8
  store ptr %0, ptr %2, align 8, !tbaa !23
  %3 = load ptr, ptr %2, align 8
  store ptr getelementptr inbounds inrange(-16, 48) ({ [8 x ptr] }, ptr @_ZTVN5faiss10CodePackerE, i32 0, i32 0, i32 2), ptr %3, align 8, !tbaa !39
  ret void
}

; Function Attrs: mustprogress nounwind uwtable
define void @_ZN5faiss13CodePackerPQ4C2Emm(ptr noundef nonnull align 8 dereferenceable(40) %0, i64 noundef %1, i64 noundef %2) unnamed_addr #0 align 2 {
  %4 = alloca ptr, align 8
  %5 = alloca i64, align 8
  %6 = alloca i64, align 8
  store ptr %0, ptr %4, align 8, !tbaa !4
  store i64 %1, ptr %5, align 8, !tbaa !11
  store i64 %2, ptr %6, align 8, !tbaa !11
  %7 = load ptr, ptr %4, align 8
  call void @_ZN5faiss10CodePackerC2Ev(ptr noundef nonnull align 8 dereferenceable(32) %7) #6
  store ptr getelementptr inbounds inrange(-16, 48) ({ [8 x ptr] }, ptr @_ZTVN5faiss13CodePackerPQ4E, i32 0, i32 0, i32 2), ptr %7, align 8, !tbaa !39
  %8 = load i64, ptr %5, align 8, !tbaa !11
  %9 = getelementptr inbounds nuw %"struct.faiss::CodePackerPQ4", ptr %7, i32 0, i32 1
  store i64 %8, ptr %9, align 8, !tbaa !18
  %10 = load i64, ptr %6, align 8, !tbaa !11
  %11 = getelementptr inbounds nuw %"struct.faiss::CodePacker", ptr %7, i32 0, i32 2
  store i64 %10, ptr %11, align 8, !tbaa !13
  %12 = load i64, ptr %5, align 8, !tbaa !11
  %13 = mul i64 %12, 4
  %14 = add i64 %13, 7
  %15 = udiv i64 %14, 8
  %16 = getelementptr inbounds nuw %"struct.faiss::CodePacker", ptr %7, i32 0, i32 1
  store i64 %15, ptr %16, align 8, !tbaa !16
  %17 = load i64, ptr %5, align 8, !tbaa !11
  %18 = add i64 %17, 1
  %19 = udiv i64 %18, 2
  %20 = load i64, ptr %6, align 8, !tbaa !11
  %21 = mul i64 %19, %20
  %22 = getelementptr inbounds nuw %"struct.faiss::CodePacker", ptr %7, i32 0, i32 3
  store i64 %21, ptr %22, align 8, !tbaa !15
  ret void
}