; Function Attrs: mustprogress nofree norecurse nosync nounwind willreturn memory(argmem: write) uwtable
define void @_ZN5faiss13CodePackerPQ4C2Emm(ptr noundef nonnull writeonly align 8 captures(none) dereferenceable(40) initializes((0, 40)) %0, i64 noundef %1, i64 noundef %2) unnamed_addr #15 align 2 {
  store ptr getelementptr inbounds nuw inrange(-16, 48) (i8, ptr @_ZTVN5faiss13CodePackerPQ4E, i64 16), ptr %0, align 8, !tbaa !30
  %4 = getelementptr inbounds nuw i8, ptr %0, i64 32
  store i64 %1, ptr %4, align 8, !tbaa !12
  %5 = getelementptr inbounds nuw i8, ptr %0, i64 16
  store i64 %2, ptr %5, align 8, !tbaa !4
  %6 = shl i64 %1, 2
  %7 = add i64 %6, 7
  %8 = lshr i64 %7, 3
  %9 = getelementptr inbounds nuw i8, ptr %0, i64 8
  store i64 %8, ptr %9, align 8, !tbaa !10
  %10 = add i64 %1, 1
  %11 = lshr i64 %10, 1
  %12 = mul i64 %11, %2
  %13 = getelementptr inbounds nuw i8, ptr %0, i64 24
  store i64 %12, ptr %13, align 8, !tbaa !9
  ret void
}